Certificate:
    Data:
        Version: 3 (0x2)
        Serial Number: 1 (0x1)
        Signature Algorithm: sha1WithRSAEncryption
        Issuer: C=CN, ST=GuangDong, L=ShenZhen, O=NWPU, OU=NWPU, CN=dave.dev/emailAddress=huangzhenzeng@126.com
        Validity
            Not Before: Aug 23 23:56:11 2016 GMT
            Not After : Aug 23 23:56:11 2017 GMT
        Subject: C=CN, ST=GuangDong, O=NWPU, OU=NWPU, CN=dave.dev/emailAddress=huangzhenzeng@126.com
        Subject Public Key Info:
            Public Key Algorithm: rsaEncryption
            RSA Public Key: (1024 bit)
                Modulus (1024 bit):
                    00:ae:c2:89:4c:de:db:3a:40:b0:bc:7a:f0:66:95:
                    e3:e0:4e:28:53:1f:b8:de:2e:da:1d:31:56:88:a1:
                    f0:57:c8:72:51:8c:b7:ee:83:c0:b4:50:bc:eb:d9:
                    32:d3:9a:68:f3:4d:2b:86:63:07:97:8e:f8:3e:0f:
                    4e:bb:32:6a:fd:0f:d8:59:28:b5:10:b9:9c:cf:7d:
                    e3:f8:9f:94:77:55:09:b0:3b:56:57:93:14:c7:9e:
                    07:89:97:9b:d3:39:29:60:97:20:ad:90:91:de:ac:
                    30:57:27:72:ba:2a:77:9f:94:38:fa:e7:f7:d7:7f:
                    73:00:86:5c:e0:ca:09:3f:5d
                Exponent: 65537 (0x10001)
        X509v3 extensions:
            X509v3 Basic Constraints: 
                CA:FALSE
            Netscape Comment: 
                OpenSSL Generated Certificate
            X509v3 Subject Key Identifier: 
                66:47:E9:E6:C3:BA:11:B0:19:31:45:36:E2:02:BD:C7:00:2C:0C:7C
            X509v3 Authority Key Identifier: 
                keyid:97:FB:30:7E:B3:77:01:51:D7:5D:AE:10:7B:3C:D7:7C:26:B4:0E:E1

    Signature Algorithm: sha1WithRSAEncryption
        80:79:15:64:84:83:2e:69:9a:d8:f1:90:9b:cc:c7:e4:84:64:
        75:bc:3d:09:d4:ba:47:17:fc:a5:02:1c:5c:31:45:2b:51:c5:
        da:5f:a2:a6:b3:cb:94:6a:6a:6e:d5:0f:98:fc:21:78:51:78:
        b6:0f:9d:31:e0:5b:b5:9c:56:d7:92:03:42:1e:b4:2d:b6:37:
        55:36:1e:fc:e9:4b:e2:9e:df:b9:24:9d:20:65:51:91:17:2c:
        ee:a8:7f:b8:09:ae:f8:70:bc:2c:20:b8:f6:b7:3e:8c:f4:13:
        23:cb:22:21:68:29:c8:ef:9a:62:13:3b:b1:f8:b8:84:ca:a7:
        83:1f
-----BEGIN CERTIFICATE-----
MIIC9TCCAl6gAwIBAgIBATANBgkqhkiG9w0BAQUFADCBizELMAkGA1UEBhMCQ04x
EjAQBgNVBAgTCUd1YW5nRG9uZzERMA8GA1UEBxMIU2hlblpoZW4xDTALBgNVBAoT
BE5XUFUxDTALBgNVBAsTBE5XUFUxETAPBgNVBAMTCGRhdmUuZGV2MSQwIgYJKoZI
hvcNAQkBFhVodWFuZ3poZW56ZW5nQDEyNi5jb20wHhcNMTYwODIzMjM1NjExWhcN
MTcwODIzMjM1NjExWjB4MQswCQYDVQQGEwJDTjESMBAGA1UECBMJR3VhbmdEb25n
MQ0wCwYDVQQKEwROV1BVMQ0wCwYDVQQLEwROV1BVMREwDwYDVQQDEwhkYXZlLmRl
djEkMCIGCSqGSIb3DQEJARYVaHVhbmd6aGVuemVuZ0AxMjYuY29tMIGfMA0GCSqG
SIb3DQEBAQUAA4GNADCBiQKBgQCuwolM3ts6QLC8evBmlePgTihTH7jeLtodMVaI
ofBXyHJRjLfug8C0ULzr2TLTmmjzTSuGYweXjvg+D067Mmr9D9hZKLUQuZzPfeP4
n5R3VQmwO1ZXkxTHngeJl5vTOSlglyCtkJHerDBXJ3K6KneflDj65/fXf3MAhlzg
ygk/XQIDAQABo3sweTAJBgNVHRMEAjAAMCwGCWCGSAGG+EIBDQQfFh1PcGVuU1NM
IEdlbmVyYXRlZCBDZXJ0aWZpY2F0ZTAdBgNVHQ4EFgQUZkfp5sO6EbAZMUU24gK9
xwAsDHwwHwYDVR0jBBgwFoAUl/swfrN3AVHXXa4QezzXfCa0DuEwDQYJKoZIhvcN
AQEFBQADgYEAgHkVZISDLmma2PGQm8zH5IRkdbw9CdS6Rxf8pQIcXDFFK1HF2l+i
prPLlGpqbtUPmPwheFF4tg+dMeBbtZxW15IDQh60LbY3VTYe/OlL4p7fuSSdIGVR
kRcs7qh/uAmu+HC8LCC49rc+jPQTI8siIWgpyO+aYhM7sfi4hMqngx8=
-----END CERTIFICATE-----
